
zig-out/bin/hydra:     file format elf64-littleriscv


Disassembly of section .text:

0000000080200000 <.text>:
    80200000:	00000197          	auipc	gp,0x0
    80200004:	4c018193          	addi	gp,gp,1216 # 0x802004c0
    80200008:	00002297          	auipc	t0,0x2
    8020000c:	ff828293          	addi	t0,t0,-8 # 0x80202000
    80200010:	00002317          	auipc	t1,0x2
    80200014:	ff030313          	addi	t1,t1,-16 # 0x80202000
    80200018:	0002b023          	sd	zero,0(t0)
    8020001c:	02a1                	addi	t0,t0,8
    8020001e:	fe62ede3          	bltu	t0,t1,0x80200018
    80200022:	00082117          	auipc	sp,0x82
    80200026:	fde10113          	addi	sp,sp,-34 # 0x80282000
    8020002a:	00000097          	auipc	ra,0x0
    8020002e:	05e080e7          	jalr	94(ra) # 0x80200088
    80200032:	1101                	addi	sp,sp,-32
    80200034:	ec06                	sd	ra,24(sp)
    80200036:	e822                	sd	s0,16(sp)
    80200038:	e426                	sd	s1,8(sp)
    8020003a:	8432                	mv	s0,a2
    8020003c:	6510                	ld	a2,8(a0)
    8020003e:	6108                	ld	a0,0(a0)
    80200040:	6218                	ld	a4,0(a2)
    80200042:	84ae                	mv	s1,a1
    80200044:	02800593          	li	a1,40
    80200048:	460d                	li	a2,3
    8020004a:	8686                	mv	a3,ra
    8020004c:	9702                	jalr	a4
    8020004e:	cd01                	beqz	a0,0x80200066
    80200050:	e104                	sd	s1,0(a0)
    80200052:	e500                	sd	s0,8(a0)
    80200054:	4581                	li	a1,0
    80200056:	e90c                	sd	a1,16(a0)
    80200058:	ed0c                	sd	a1,24(a0)
    8020005a:	f10c                	sd	a1,32(a0)
    8020005c:	60e2                	ld	ra,24(sp)
    8020005e:	6442                	ld	s0,16(sp)
    80200060:	64a2                	ld	s1,8(sp)
    80200062:	6105                	addi	sp,sp,32
    80200064:	8082                	ret
    80200066:	0000                	unimp
    80200068:	00254583          	lbu	a1,2(a0)
    8020006c:	00354603          	lbu	a2,3(a0)
    80200070:	00154683          	lbu	a3,1(a0)
    80200074:	00054503          	lbu	a0,0(a0)
    80200078:	05a2                	slli	a1,a1,0x8
    8020007a:	8dd1                	or	a1,a1,a2
    8020007c:	06c2                	slli	a3,a3,0x10
    8020007e:	0185151b          	slliw	a0,a0,0x18
    80200082:	8d55                	or	a0,a0,a3
    80200084:	8d4d                	or	a0,a0,a1
    80200086:	8082                	ret
    80200088:	7131                	addi	sp,sp,-192
    8020008a:	fd06                	sd	ra,184(sp)
    8020008c:	f922                	sd	s0,176(sp)
    8020008e:	f526                	sd	s1,168(sp)
    80200090:	f14a                	sd	s2,160(sp)
    80200092:	ed4e                	sd	s3,152(sp)
    80200094:	e952                	sd	s4,144(sp)
    80200096:	e556                	sd	s5,136(sp)
    80200098:	e15a                	sd	s6,128(sp)
    8020009a:	fcde                	sd	s7,120(sp)
    8020009c:	f8e2                	sd	s8,112(sp)
    8020009e:	f4e6                	sd	s9,104(sp)
    802000a0:	f0ea                	sd	s10,96(sp)
    802000a2:	10000537          	lui	a0,0x10000
    802000a6:	458d                	li	a1,3
    802000a8:	4605                	li	a2,1
    802000aa:	00b501a3          	sb	a1,3(a0) # 0x10000003
    802000ae:	0035069b          	addiw	a3,a0,3
    802000b2:	fec68fa3          	sb	a2,-1(a3)
    802000b6:	fec68f23          	sb	a2,-2(a3)
    802000ba:	08300613          	li	a2,131
    802000be:	00c501a3          	sb	a2,3(a0)
    802000c2:	05000613          	li	a2,80
    802000c6:	00c50023          	sb	a2,0(a0)
    802000ca:	4609                	li	a2,2
    802000cc:	fec68f23          	sb	a2,-2(a3)
    802000d0:	00082617          	auipc	a2,0x82
    802000d4:	87d7e697          	auipc	a3,0x87d7e
    802000d8:	f3060613          	addi	a2,a2,-208 # 0x80282000
    802000dc:	f2c68693          	addi	a3,a3,-212 # 0x7f7e000
    802000e0:	00b501a3          	sb	a1,3(a0)
    802000e4:	e42a                	sd	a0,8(sp)
    802000e6:	e802                	sd	zero,16(sp)
    802000e8:	ec32                	sd	a2,24(sp)
    802000ea:	f036                	sd	a3,32(sp)
    802000ec:	00001597          	auipc	a1,0x1
    802000f0:	0028                	addi	a0,sp,8
    802000f2:	7e058593          	addi	a1,a1,2016 # 0x802018cc
    802000f6:	4639                	li	a2,14
    802000f8:	00000097          	auipc	ra,0x0
    802000fc:	2b6080e7          	jalr	694(ra) # 0x802003ae
    80200100:	0808                	addi	a0,sp,16
    80200102:	00001597          	auipc	a1,0x1
    80200106:	79e58593          	addi	a1,a1,1950 # 0x802018a0
    8020010a:	f42a                	sd	a0,40(sp)
    8020010c:	f82e                	sd	a1,48(sp)
    8020010e:	00001597          	auipc	a1,0x1
    80200112:	1028                	addi	a0,sp,40
    80200114:	7b858593          	addi	a1,a1,1976 # 0x802018c6
    80200118:	4605                	li	a2,1
    8020011a:	00000097          	auipc	ra,0x0
    8020011e:	f18080e7          	jalr	-232(ra) # 0x80200032
    80200122:	8caa                	mv	s9,a0
    80200124:	4b81                	li	s7,0
    80200126:	4c01                	li	s8,0
    80200128:	00000517          	auipc	a0,0x0
    8020012c:	49a1                	li	s3,8
    8020012e:	00000597          	auipc	a1,0x0
    80200132:	6605                	lui	a2,0x1
    80200134:	3e050a13          	addi	s4,a0,992 # 0x80200508
    80200138:	39258a93          	addi	s5,a1,914 # 0x802004c0
    8020013c:	19060b1b          	addiw	s6,a2,400 # 0x1190
    80200140:	018a0933          	add	s2,s4,s8
    80200144:	03890493          	addi	s1,s2,56
    80200148:	8526                	mv	a0,s1
    8020014a:	00000097          	auipc	ra,0x0
    8020014e:	f1e080e7          	jalr	-226(ra) # 0x80200068
    80200152:	2501                	sext.w	a0,a0
    80200154:	157d                	addi	a0,a0,-1
    80200156:	00351593          	slli	a1,a0,0x3
    8020015a:	95d6                	add	a1,a1,s5
    8020015c:	618c                	ld	a1,0(a1)
    8020015e:	00a9e063          	bltu	s3,a0,0x8020015e
    80200162:	020c8413          	addi	s0,s9,32
    80200166:	8582                	jr	a1
    80200168:	4481                	li	s1,0
    8020016a:	037cb023          	sd	s7,32(s9)
    8020016e:	03c90593          	addi	a1,s2,60
    80200172:	03d90513          	addi	a0,s2,61
    80200176:	00950633          	add	a2,a0,s1
    8020017a:	00064603          	lbu	a2,0(a2)
    8020017e:	0485                	addi	s1,s1,1
    80200180:	fa7d                	bnez	a2,0x80200176
    80200182:	1028                	addi	a0,sp,40
    80200184:	8626                	mv	a2,s1
    80200186:	00000097          	auipc	ra,0x0
    8020018a:	eac080e7          	jalr	-340(ra) # 0x80200032
    8020018e:	8caa                	mv	s9,a0
    80200190:	94e2                	add	s1,s1,s8
    80200192:	00548c13          	addi	s8,s1,5
    80200196:	003c7513          	andi	a0,s8,3
    8020019a:	8ba2                	mv	s7,s0
    8020019c:	d155                	beqz	a0,0x80200140
    8020019e:	ffcc7c13          	andi	s8,s8,-4
    802001a2:	0c11                	addi	s8,s8,4
    802001a4:	8ba2                	mv	s7,s0
    802001a6:	bf69                	j	0x80200140
    802001a8:	0c11                	addi	s8,s8,4
    802001aa:	bf59                	j	0x80200140
    802001ac:	0c0b8e63          	beqz	s7,0x80200288
    802001b0:	ff8bb503          	ld	a0,-8(s7)
    802001b4:	000bb583          	ld	a1,0(s7)
    802001b8:	0c11                	addi	s8,s8,4
    802001ba:	02acb023          	sd	a0,32(s9)
    802001be:	fe0b8c93          	addi	s9,s7,-32
    802001c2:	fe8bbc23          	sd	s0,-8(s7)
    802001c6:	8bae                	mv	s7,a1
    802001c8:	bfa5                	j	0x80200140
    802001ca:	03c90513          	addi	a0,s2,60
    802001ce:	00000097          	auipc	ra,0x0
    802001d2:	e9a080e7          	jalr	-358(ra) # 0x80200068
    802001d6:	892a                	mv	s2,a0
    802001d8:	00848513          	addi	a0,s1,8
    802001dc:	00000097          	auipc	ra,0x0
    802001e0:	e8c080e7          	jalr	-372(ra) # 0x80200068
    802001e4:	4481                	li	s1,0
    802001e6:	1502                	slli	a0,a0,0x20
    802001e8:	9101                	srli	a0,a0,0x20
    802001ea:	016a0433          	add	s0,s4,s6
    802001ee:	942a                	add	s0,s0,a0
    802001f0:	00940533          	add	a0,s0,s1
    802001f4:	00054503          	lbu	a0,0(a0)
    802001f8:	0485                	addi	s1,s1,1
    802001fa:	f97d                	bnez	a0,0x802001f0
    802001fc:	00397513          	andi	a0,s2,3
    80200200:	c519                	beqz	a0,0x8020020e
    80200202:	0029551b          	srliw	a0,s2,0x2
    80200206:	050a                	slli	a0,a0,0x2
    80200208:	00450913          	addi	s2,a0,4
    8020020c:	a021                	j	0x80200214
    8020020e:	1902                	slli	s2,s2,0x20
    80200210:	02095913          	srli	s2,s2,0x20
    80200214:	00044503          	lbu	a0,0(s0)
    80200218:	fdd50513          	addi	a0,a0,-35
    8020021c:	00cc0d13          	addi	s10,s8,12
    80200220:	e511                	bnez	a0,0x8020022c
    80200222:	00001517          	auipc	a0,0x1
    80200226:	66e50c13          	addi	s8,a0,1646 # 0x80201890
    8020022a:	a015                	j	0x8020024e
    8020022c:	038a0593          	addi	a1,s4,56
    80200230:	01a58533          	add	a0,a1,s10
    80200234:	9c2e                	add	s8,s8,a1
    80200236:	45b1                	li	a1,12
    80200238:	00bc0633          	add	a2,s8,a1
    8020023c:	00064603          	lbu	a2,0(a2)
    80200240:	0585                	addi	a1,a1,1
    80200242:	fa7d                	bnez	a2,0x80200238
    80200244:	15cd                	addi	a1,a1,-13
    80200246:	e0aa                	sd	a0,64(sp)
    80200248:	e4ae                	sd	a1,72(sp)
    8020024a:	04010c13          	addi	s8,sp,64
    8020024e:	0808                	addi	a0,sp,16
    80200250:	02800593          	li	a1,40
    80200254:	460d                	li	a2,3
    80200256:	00000097          	auipc	ra,0x0
    8020025a:	19c080e7          	jalr	412(ra) # 0x802003f2
    8020025e:	14050763          	beqz	a0,0x802003ac
    80200262:	14fd                	addi	s1,s1,-1
    80200264:	e100                	sd	s0,0(a0)
    80200266:	e504                	sd	s1,8(a0)
    80200268:	86e2                	mv	a3,s8
    8020026a:	628c                	ld	a1,0(a3)
    8020026c:	6690                	ld	a2,8(a3)
    8020026e:	02053023          	sd	zero,32(a0)
    80200272:	e90c                	sd	a1,16(a0)
    80200274:	ed10                	sd	a2,24(a0)
    80200276:	86e6                	mv	a3,s9
    80200278:	6a8c                	ld	a1,16(a3)
    8020027a:	02050613          	addi	a2,a0,32
    8020027e:	f10c                	sd	a1,32(a0)
    80200280:	ea90                	sd	a2,16(a3)
    80200282:	01a90c33          	add	s8,s2,s10
    80200286:	bd6d                	j	0x80200140
    80200288:	018c8a13          	addi	s4,s9,24
    8020028c:	00001517          	auipc	a0,0x1
    80200290:	00001597          	auipc	a1,0x1
    80200294:	4a95                	li	s5,5
    80200296:	00001617          	auipc	a2,0x1
    8020029a:	65450993          	addi	s3,a0,1620 # 0x802018e0
    8020029e:	63058b93          	addi	s7,a1,1584 # 0x802018c0
    802002a2:	63260913          	addi	s2,a2,1586 # 0x802018c8
    802002a6:	4b05                	li	s6,1
    802002a8:	000a3a03          	ld	s4,0(s4)
    802002ac:	0e0a0f63          	beqz	s4,0x802003aa
    802002b0:	ff0a0c13          	addi	s8,s4,-16
    802002b4:	000c3c03          	ld	s8,0(s8)
    802002b8:	fe0c08e3          	beqz	s8,0x802002a8
    802002bc:	fe0c3583          	ld	a1,-32(s8)
    802002c0:	fe8c3603          	ld	a2,-24(s8)
    802002c4:	854e                	mv	a0,s3
    802002c6:	00000097          	auipc	ra,0x0
    802002ca:	0e8080e7          	jalr	232(ra) # 0x802003ae
    802002ce:	0c001f63          	bnez	zero,0x802003ac
    802002d2:	fe8c3403          	ld	s0,-24(s8)
    802002d6:	cc45                	beqz	s0,0x8020038e
    802002d8:	fe0c3c83          	ld	s9,-32(s8)
    802002dc:	0808                	addi	a0,sp,16
    802002de:	85a2                	mv	a1,s0
    802002e0:	4601                	li	a2,0
    802002e2:	00000097          	auipc	ra,0x0
    802002e6:	110080e7          	jalr	272(ra) # 0x802003f2
    802002ea:	c169                	beqz	a0,0x802003ac
    802002ec:	4615                	li	a2,5
    802002ee:	85de                	mv	a1,s7
    802002f0:	00000097          	auipc	ra,0x0
    802002f4:	1ba080e7          	jalr	442(ra) # 0x802004aa
    802002f8:	0b541263          	bne	s0,s5,0x8020039c
    802002fc:	077c8863          	beq	s9,s7,0x8020036c
    80200300:	4801                	li	a6,0
    80200302:	e082                	sd	zero,64(sp)
    80200304:	e4da                	sd	s6,72(sp)
    80200306:	e882                	sd	zero,80(sp)
    80200308:	ecda                	sd	s6,88(sp)
    8020030a:	008c                	addi	a1,sp,64
    8020030c:	4611                	li	a2,4
    8020030e:	ce29                	beqz	a2,0x80200368
    80200310:	6194                	ld	a3,0(a1)
    80200312:	05a1                	addi	a1,a1,8
    80200314:	00dc8733          	add	a4,s9,a3
    80200318:	00074783          	lbu	a5,0(a4)
    8020031c:	00174403          	lbu	s0,1(a4)
    80200320:	00274483          	lbu	s1,2(a4)
    80200324:	00370703          	lb	a4,3(a4)
    80200328:	96de                	add	a3,a3,s7
    8020032a:	0084141b          	slliw	s0,s0,0x8
    8020032e:	0104949b          	slliw	s1,s1,0x10
    80200332:	0187171b          	slliw	a4,a4,0x18
    80200336:	8fc1                	or	a5,a5,s0
    80200338:	0006c403          	lbu	s0,0(a3)
    8020033c:	0016c503          	lbu	a0,1(a3)
    80200340:	8f45                	or	a4,a4,s1
    80200342:	0026c483          	lbu	s1,2(a3)
    80200346:	00368683          	lb	a3,3(a3)
    8020034a:	0085151b          	slliw	a0,a0,0x8
    8020034e:	8d41                	or	a0,a0,s0
    80200350:	0104949b          	slliw	s1,s1,0x10
    80200354:	0186969b          	slliw	a3,a3,0x18
    80200358:	8ec5                	or	a3,a3,s1
    8020035a:	8f5d                	or	a4,a4,a5
    8020035c:	8d55                	or	a0,a0,a3
    8020035e:	8d39                	xor	a0,a0,a4
    80200360:	01056833          	or	a6,a0,a6
    80200364:	167d                	addi	a2,a2,-1
    80200366:	f64d                	bnez	a2,0x80200310
    80200368:	02081a63          	bnez	a6,0x8020039c
    8020036c:	460d                	li	a2,3
    8020036e:	854e                	mv	a0,s3
    80200370:	85ca                	mv	a1,s2
    80200372:	00000097          	auipc	ra,0x0
    80200376:	03c080e7          	jalr	60(ra) # 0x802003ae
    8020037a:	ff0c3583          	ld	a1,-16(s8)
    8020037e:	ff8c3603          	ld	a2,-8(s8)
    80200382:	854e                	mv	a0,s3
    80200384:	00000097          	auipc	ra,0x0
    80200388:	02a080e7          	jalr	42(ra) # 0x802003ae
    8020038c:	a801                	j	0x8020039c
    8020038e:	557d                	li	a0,-1
    80200390:	4615                	li	a2,5
    80200392:	85de                	mv	a1,s7
    80200394:	00000097          	auipc	ra,0x0
    80200398:	116080e7          	jalr	278(ra) # 0x802004aa
    8020039c:	45a9                	li	a1,10
    8020039e:	854e                	mv	a0,s3
    802003a0:	00000097          	auipc	ra,0x0
    802003a4:	040080e7          	jalr	64(ra) # 0x802003e0
    802003a8:	b731                	j	0x802002b4
    802003aa:	a001                	j	0x802003aa
    802003ac:	0000                	unimp
    802003ae:	1101                	addi	sp,sp,-32
    802003b0:	ec06                	sd	ra,24(sp)
    802003b2:	e822                	sd	s0,16(sp)
    802003b4:	e426                	sd	s1,8(sp)
    802003b6:	e04a                	sd	s2,0(sp)
    802003b8:	8432                	mv	s0,a2
    802003ba:	84ae                	mv	s1,a1
    802003bc:	892a                	mv	s2,a0
    802003be:	ca19                	beqz	a2,0x802003d4
    802003c0:	0004c583          	lbu	a1,0(s1)
    802003c4:	854a                	mv	a0,s2
    802003c6:	00000097          	auipc	ra,0x0
    802003ca:	01a080e7          	jalr	26(ra) # 0x802003e0
    802003ce:	147d                	addi	s0,s0,-1
    802003d0:	0485                	addi	s1,s1,1
    802003d2:	f47d                	bnez	s0,0x802003c0
    802003d4:	60e2                	ld	ra,24(sp)
    802003d6:	6442                	ld	s0,16(sp)
    802003d8:	64a2                	ld	s1,8(sp)
    802003da:	6902                	ld	s2,0(sp)
    802003dc:	6105                	addi	sp,sp,32
    802003de:	8082                	ret
    802003e0:	6108                	ld	a0,0(a0)
    802003e2:	00554603          	lbu	a2,5(a0)
    802003e6:	04067613          	andi	a2,a2,64
    802003ea:	de65                	beqz	a2,0x802003e2
    802003ec:	00b50023          	sb	a1,0(a0)
    802003f0:	8082                	ret
    802003f2:	1141                	addi	sp,sp,-16
    802003f4:	00053883          	ld	a7,0(a0)
    802003f8:	00853803          	ld	a6,8(a0)
    802003fc:	03f67693          	andi	a3,a2,63
    80200400:	00d103a3          	sb	a3,7(sp)
    80200404:	c68d                	beqz	a3,0x8020042e
    80200406:	4685                	li	a3,1
    80200408:	00c697b3          	sll	a5,a3,a2
    8020040c:	01180633          	add	a2,a6,a7
    80200410:	00c786b3          	add	a3,a5,a2
    80200414:	16fd                	addi	a3,a3,-1
    80200416:	00c6b733          	sltu	a4,a3,a2
    8020041a:	00e10423          	sb	a4,8(sp)
    8020041e:	00c6ee63          	bltu	a3,a2,0x8020043a
    80200422:	40f00733          	neg	a4,a5
    80200426:	8ef9                	and	a3,a3,a4
    80200428:	40c68633          	sub	a2,a3,a2
    8020042c:	a011                	j	0x80200430
    8020042e:	4601                	li	a2,0
    80200430:	6914                	ld	a3,16(a0)
    80200432:	9646                	add	a2,a2,a7
    80200434:	95b2                	add	a1,a1,a2
    80200436:	00b6f463          	bgeu	a3,a1,0x8020043e
    8020043a:	4501                	li	a0,0
    8020043c:	a021                	j	0x80200444
    8020043e:	e10c                	sd	a1,0(a0)
    80200440:	00c80533          	add	a0,a6,a2
    80200444:	0141                	addi	sp,sp,16
    80200446:	8082                	ret
    80200448:	6114                	ld	a3,0(a0)
    8020044a:	651c                	ld	a5,8(a0)
    8020044c:	95b2                	add	a1,a1,a2
    8020044e:	97b6                	add	a5,a5,a3
    80200450:	00f58763          	beq	a1,a5,0x8020045e
    80200454:	00e63533          	sltu	a0,a2,a4
    80200458:	00154513          	xori	a0,a0,1
    8020045c:	8082                	ret
    8020045e:	40c705b3          	sub	a1,a4,a2
    80200462:	96ae                	add	a3,a3,a1
    80200464:	00e67763          	bgeu	a2,a4,0x80200472
    80200468:	690c                	ld	a1,16(a0)
    8020046a:	00d5f463          	bgeu	a1,a3,0x80200472
    8020046e:	4501                	li	a0,0
    80200470:	8082                	ret
    80200472:	e114                	sd	a3,0(a0)
    80200474:	4505                	li	a0,1
    80200476:	8082                	ret
    80200478:	1141                	addi	sp,sp,-16
    8020047a:	e406                	sd	ra,8(sp)
    8020047c:	e022                	sd	s0,0(sp)
    8020047e:	842e                	mv	s0,a1
    80200480:	00000097          	auipc	ra,0x0
    80200484:	fc8080e7          	jalr	-56(ra) # 0x80200448
    80200488:	157e                	slli	a0,a0,0x3f
    8020048a:	957d                	srai	a0,a0,0x3f
    8020048c:	8d61                	and	a0,a0,s0
    8020048e:	60a2                	ld	ra,8(sp)
    80200490:	6402                	ld	s0,0(sp)
    80200492:	0141                	addi	sp,sp,16
    80200494:	8082                	ret
    80200496:	6114                	ld	a3,0(a0)
    80200498:	6518                	ld	a4,8(a0)
    8020049a:	95b2                	add	a1,a1,a2
    8020049c:	9736                	add	a4,a4,a3
    8020049e:	00e58363          	beq	a1,a4,0x802004a4
    802004a2:	8082                	ret
    802004a4:	8e91                	sub	a3,a3,a2
    802004a6:	e114                	sd	a3,0(a0)
    802004a8:	8082                	ret
    802004aa:	86aa                	mv	a3,a0
    802004ac:	ca09                	beqz	a2,0x802004be
    802004ae:	0005c703          	lbu	a4,0(a1)
    802004b2:	167d                	addi	a2,a2,-1
    802004b4:	00e68023          	sb	a4,0(a3)
    802004b8:	0685                	addi	a3,a3,1
    802004ba:	0585                	addi	a1,a1,1
    802004bc:	fa6d                	bnez	a2,0x802004ae
    802004be:	8082                	ret
